; Function Attrs: nounwind uwtable
define void @Gia_StochProcessArray(ptr noundef readonly captures(none) %0, ptr noundef %1, i32 %2, i32 %3) local_unnamed_addr #0 {
  %5 = getelementptr i8, ptr %0, i64 4
  %.val = load i32, ptr %5, align 4, !tbaa !37
  %6 = tail call noalias dereferenceable_or_null(16) ptr @malloc(i64 noundef 16) #20
  %7 = add i32 %.val, -1
  %or.cond.i = icmp ult i32 %7, 15
  %spec.store.select.i = select i1 %or.cond.i, i32 16, i32 %.val
  %8 = getelementptr inbounds nuw i8, ptr %6, i64 4
  store i32 0, ptr %8, align 4, !tbaa !29
  store i32 %spec.store.select.i, ptr %6, align 8, !tbaa !39
  %.not.i = icmp eq i32 %spec.store.select.i, 0
  br i1 %.not.i, label %Vec_IntAlloc.exit, label %9

9:                                                ; preds = %4
  %10 = sext i32 %spec.store.select.i to i64
  %11 = shl nsw i64 %10, 2
  %12 = tail call noalias ptr @malloc(i64 noundef %11) #20
  br label %Vec_IntAlloc.exit

Vec_IntAlloc.exit:                                ; preds = %4, %9
  %13 = phi ptr [ %12, %9 ], [ null, %4 ]
  %14 = getelementptr inbounds nuw i8, ptr %6, i64 8
  store ptr %13, ptr %14, align 8, !tbaa !40
  %15 = tail call i32 @Abc_Random(i32 noundef 1) #18
  %.val1925 = load i32, ptr %5, align 4, !tbaa !37
  %16 = icmp sgt i32 %.val1925, 0
  br i1 %16, label %.lr.ph, label %.critedge

.preheader:                                       ; preds = %Vec_IntPush.exit
  %17 = icmp sgt i32 %.val19, 0
  br i1 %17, label %.lr.ph29, label %.critedge.thread

.lr.ph29:                                         ; preds = %.preheader
  %18 = getelementptr i8, ptr %0, i64 8
  br label %45

.lr.ph:                                           ; preds = %Vec_IntAlloc.exit, %Vec_IntPush.exit
  %19 = phi ptr [ %.pre.i31, %Vec_IntPush.exit ], [ %13, %Vec_IntAlloc.exit ]
  %.026 = phi i32 [ %43, %Vec_IntPush.exit ], [ 0, %Vec_IntAlloc.exit ]
  %20 = tail call i32 @Abc_Random(i32 noundef 0) #18
  %21 = and i32 %20, 16777215
  %22 = load i32, ptr %8, align 4, !tbaa !29
  %23 = load i32, ptr %6, align 8, !tbaa !39
  %24 = icmp eq i32 %22, %23
  br i1 %24, label %25, label %Vec_IntPush.exit

25:                                               ; preds = %.lr.ph
  %26 = icmp slt i32 %22, 16
  br i1 %26, label %27, label %32

27:                                               ; preds = %25
  %.not9.i.i = icmp eq ptr %19, null
  br i1 %.not9.i.i, label %30, label %28

28:                                               ; preds = %27
  %29 = tail call dereferenceable_or_null(64) ptr @realloc(ptr noundef nonnull %19, i64 noundef 64) #21
  br label %Vec_IntPush.exit.sink.split

30:                                               ; preds = %27
  %31 = tail call noalias dereferenceable_or_null(64) ptr @malloc(i64 noundef 64) #20
  br label %Vec_IntPush.exit.sink.split

32:                                               ; preds = %25
  %33 = shl nuw nsw i32 %22, 1
  %.not9.i9.i = icmp eq ptr %19, null
  %34 = zext nneg i32 %33 to i64
  %35 = shl nuw nsw i64 %34, 2
  br i1 %.not9.i9.i, label %38, label %36

36:                                               ; preds = %32
  %37 = tail call ptr @realloc(ptr noundef nonnull %19, i64 noundef %35) #21
  br label %Vec_IntPush.exit.sink.split

38:                                               ; preds = %32
  %39 = tail call noalias ptr @malloc(i64 noundef %35) #20
  br label %Vec_IntPush.exit.sink.split

Vec_IntPush.exit.sink.split:                      ; preds = %36, %38, %28, %30
  %.sink37 = phi ptr [ %29, %28 ], [ %31, %30 ], [ %37, %36 ], [ %39, %38 ]
  %.sink = phi i32 [ 16, %28 ], [ 16, %30 ], [ %33, %36 ], [ %33, %38 ]
  store ptr %.sink37, ptr %14, align 8, !tbaa !40
  store i32 %.sink, ptr %6, align 8, !tbaa !39
  br label %Vec_IntPush.exit

Vec_IntPush.exit:                                 ; preds = %Vec_IntPush.exit.sink.split, %.lr.ph
  %.pre.i31 = phi ptr [ %19, %.lr.ph ], [ %.sink37, %Vec_IntPush.exit.sink.split ]
  %40 = add nsw i32 %22, 1
  store i32 %40, ptr %8, align 4, !tbaa !29
  %41 = sext i32 %22 to i64
  %42 = getelementptr inbounds i32, ptr %.pre.i31, i64 %41
  store i32 %21, ptr %42, align 4, !tbaa !31
  %43 = add nuw nsw i32 %.026, 1
  %.val19 = load i32, ptr %5, align 4, !tbaa !37
  %44 = icmp slt i32 %43, %.val19
  br i1 %44, label %.lr.ph, label %.preheader, !llvm.loop !41

45:                                               ; preds = %.lr.ph29, %45
  %indvars.iv = phi i64 [ 0, %.lr.ph29 ], [ %indvars.iv.next, %45 ]
  %.val21 = load ptr, ptr %18, align 8, !tbaa !43
  %46 = getelementptr inbounds nuw ptr, ptr %.val21, i64 %indvars.iv
  %47 = load ptr, ptr %46, align 8, !tbaa !44
  %48 = tail call ptr @Gia_StochProcessSingle(ptr noundef %47, ptr noundef %1, i32 poison, i32 poison)
  tail call void @Gia_ManStop(ptr noundef %47) #18
  %.val23 = load ptr, ptr %18, align 8, !tbaa !43
  %49 = getelementptr inbounds nuw ptr, ptr %.val23, i64 %indvars.iv
  store ptr %48, ptr %49, align 8, !tbaa !44
  %indvars.iv.next = add nuw nsw i64 %indvars.iv, 1
  %.val20 = load i32, ptr %5, align 4, !tbaa !37
  %50 = sext i32 %.val20 to i64
  %51 = icmp slt i64 %indvars.iv.next, %50
  br i1 %51, label %45, label %.critedge.thread, !llvm.loop !45

.critedge:                                        ; preds = %Vec_IntAlloc.exit
  %.not.i24 = icmp eq ptr %13, null
  br i1 %.not.i24, label %Vec_IntFree.exit, label %.critedge.thread

.critedge.thread:                                 ; preds = %45, %.preheader, %.critedge
  %52 = phi ptr [ %13, %.critedge ], [ %.pre.i31, %.preheader ], [ %.pre.i31, %45 ]
  tail call void @free(ptr noundef nonnull %52) #18
  br label %Vec_IntFree.exit

Vec_IntFree.exit:                                 ; preds = %.critedge, %.critedge.thread
  tail call void @free(ptr noundef nonnull %6) #18
  ret void
}